; Function Attrs: mustprogress nofree norecurse nounwind willreturn memory(read, argmem: readwrite, inaccessiblemem: none) uwtable
define noundef zeroext i1 @_ZTv0_n56_N5folly14StrandExecutor16keepAliveAcquireEv(ptr noundef captures(none) %0) unnamed_addr #34 align 2 personality ptr @__gxx_personality_v0 {
  %2 = load ptr, ptr %0, align 8, !tbaa !17
  %3 = getelementptr inbounds i8, ptr %2, i64 -56
  %4 = load i64, ptr %3, align 8
  %5 = getelementptr inbounds i8, ptr %0, i64 %4
  %6 = getelementptr inbounds nuw i8, ptr %5, i64 8
  %7 = atomicrmw add ptr %6, i64 1 monotonic, align 8
  ret i1 true
}